target datalayout = "e-m:e-p270:32:32-p271:32:32-p272:64:64-i64:64-i128:128-f80:128-n8:16:32:64-S128"
target triple = "x86_64-pc-linux-gnu"

@hf_gtpv2_rnc_id = internal global i32 0, align 4
@hf_gtpv2_lac = internal global i32 0, align 4
@ett_gtpv2_rai = internal global i32 0, align 4
@.str.1797 = private unnamed_addr constant [41 x i8] c"Routing area identification: %x-%x-%u-%u\00", align 1

; Function Attrs: null_pointer_is_valid sspstrong uwtable
define internal void @dissect_gtpv2_tgt_rnc_id(ptr noundef %0, ptr noundef %1, ptr noundef %2, ptr noundef %3, i16 noundef zeroext %4, i8 noundef zeroext %5, i8 noundef zeroext %6, ptr noundef %7) #1 {
  %9 = alloca ptr, align 8
  %10 = alloca ptr, align 8
  %11 = alloca ptr, align 8
  %12 = alloca ptr, align 8
  %13 = alloca i16, align 2
  %14 = alloca i8, align 1
  %15 = alloca i8, align 1
  %16 = alloca ptr, align 8
  %17 = alloca i32, align 4
  %18 = alloca i16, align 2
  %19 = alloca ptr, align 8
  %20 = alloca i32, align 4
  %21 = alloca i32, align 4
  %22 = alloca i32, align 4
  %23 = alloca i32, align 4
  store ptr %0, ptr %9, align 8
  store ptr %1, ptr %10, align 8
  store ptr %2, ptr %11, align 8
  store ptr %3, ptr %12, align 8
  store i16 %4, ptr %13, align 2
  store i8 %5, ptr %14, align 1
  store i8 %6, ptr %15, align 1
  store ptr %7, ptr %16, align 8
  call void @llvm.lifetime.start.p0(i64 4, ptr %17) #11
  store i32 0, ptr %17, align 4
  call void @llvm.lifetime.start.p0(i64 2, ptr %18) #11
  call void @llvm.lifetime.start.p0(i64 8, ptr %19) #11
  call void @llvm.lifetime.start.p0(i64 4, ptr %20) #11
  call void @llvm.lifetime.start.p0(i64 4, ptr %21) #11
  call void @llvm.lifetime.start.p0(i64 4, ptr %22) #11
  call void @llvm.lifetime.start.p0(i64 4, ptr %23) #11
  %24 = load i32, ptr %17, align 4
  store i32 %24, ptr %23, align 4
  %25 = load ptr, ptr %9, align 8
  %26 = load i32, ptr %23, align 4
  %27 = call zeroext i8 @tvb_get_uint8(ptr noundef %25, i32 noundef %26)
  %28 = zext i8 %27 to i32
  %29 = and i32 %28, 15
  %30 = shl i32 %29, 8
  store i32 %30, ptr %20, align 4
  %31 = load ptr, ptr %9, align 8
  %32 = load i32, ptr %23, align 4
  %33 = call zeroext i8 @tvb_get_uint8(ptr noundef %31, i32 noundef %32)
  %34 = zext i8 %33 to i32
  %35 = and i32 %34, 240
  %36 = load i32, ptr %20, align 4
  %37 = or i32 %36, %35
  store i32 %37, ptr %20, align 4
  %38 = load ptr, ptr %9, align 8
  %39 = load i32, ptr %23, align 4
  %40 = add i32 %39, 1
  %41 = call zeroext i8 @tvb_get_uint8(ptr noundef %38, i32 noundef %40)
  %42 = zext i8 %41 to i32
  %43 = and i32 %42, 15
  %44 = load i32, ptr %20, align 4
  %45 = or i32 %44, %43
  store i32 %45, ptr %20, align 4
  %46 = load ptr, ptr %9, align 8
  %47 = load i32, ptr %23, align 4
  %48 = add i32 %47, 2
  %49 = call zeroext i8 @tvb_get_uint8(ptr noundef %46, i32 noundef %48)
  %50 = zext i8 %49 to i32
  %51 = and i32 %50, 15
  %52 = shl i32 %51, 8
  store i32 %52, ptr %21, align 4
  %53 = load ptr, ptr %9, align 8
  %54 = load i32, ptr %23, align 4
  %55 = add i32 %54, 2
  %56 = call zeroext i8 @tvb_get_uint8(ptr noundef %53, i32 noundef %55)
  %57 = zext i8 %56 to i32
  %58 = and i32 %57, 240
  %59 = load i32, ptr %21, align 4
  %60 = or i32 %59, %58
  store i32 %60, ptr %21, align 4
  %61 = load ptr, ptr %9, align 8
  %62 = load i32, ptr %23, align 4
  %63 = add i32 %62, 1
  %64 = call zeroext i8 @tvb_get_uint8(ptr noundef %61, i32 noundef %63)
  %65 = zext i8 %64 to i32
  %66 = and i32 %65, 240
  %67 = ashr i32 %66, 4
  %68 = load i32, ptr %21, align 4
  %69 = or i32 %68, %67
  store i32 %69, ptr %21, align 4
  %70 = load i32, ptr %21, align 4
  %71 = and i32 %70, 15
  %72 = icmp eq i32 %71, 15
  br i1 %72, label %73, label %76

73:                                               ; preds = %8
  %74 = load i32, ptr %21, align 4
  %75 = lshr i32 %74, 4
  store i32 %75, ptr %21, align 4
  br label %76

76:                                               ; preds = %73, %8
  %77 = load ptr, ptr %9, align 8
  %78 = load i32, ptr %23, align 4
  %79 = add i32 %78, 3
  %80 = call zeroext i16 @tvb_get_ntohs(ptr noundef %77, i32 noundef %79)
  %81 = zext i16 %80 to i32
  store i32 %81, ptr %22, align 4
  %82 = load ptr, ptr %9, align 8
  %83 = load i32, ptr %23, align 4
  %84 = add i32 %83, 5
  %85 = call zeroext i16 @tvb_get_ntohs(ptr noundef %82, i32 noundef %84)
  store i16 %85, ptr %18, align 2
  %86 = load ptr, ptr %11, align 8
  %87 = load ptr, ptr %9, align 8
  %88 = load i32, ptr %23, align 4
  %89 = load i32, ptr @ett_gtpv2_rai, align 4
  %90 = load i32, ptr %20, align 4
  %91 = load i32, ptr %21, align 4
  %92 = load i32, ptr %22, align 4
  %93 = load i16, ptr %18, align 2
  %94 = zext i16 %93 to i32
  %95 = call ptr (ptr, ptr, i32, i32, i32, ptr, ptr, ...) @proto_tree_add_subtree_format(ptr noundef %86, ptr noundef %87, i32 noundef %88, i32 noundef 6, i32 noundef %89, ptr noundef null, ptr noundef @.str.1797, i32 noundef %90, i32 noundef %91, i32 noundef %92, i32 noundef %94)
  store ptr %95, ptr %19, align 8
  %96 = load ptr, ptr %9, align 8
  %97 = load ptr, ptr %10, align 8
  %98 = load ptr, ptr %19, align 8
  %99 = load i32, ptr %17, align 4
  %100 = call i32 @dissect_e212_mcc_mnc(ptr noundef %96, ptr noundef %97, ptr noundef %98, i32 noundef %99, i32 noundef 2, i1 noundef zeroext true)
  %101 = load i32, ptr %23, align 4
  %102 = add i32 %101, 3
  store i32 %102, ptr %23, align 4
  %103 = load ptr, ptr %19, align 8
  %104 = load i32, ptr @hf_gtpv2_lac, align 4
  %105 = load ptr, ptr %9, align 8
  %106 = load i32, ptr %23, align 4
  %107 = call ptr @proto_tree_add_item(ptr noundef %103, i32 noundef %104, ptr noundef %105, i32 noundef %106, i32 noundef 2, i32 noundef 0)
  %108 = load i32, ptr %23, align 4
  %109 = add i32 %108, 2
  store i32 %109, ptr %23, align 4
  %110 = load ptr, ptr %19, align 8
  %111 = load i32, ptr @hf_gtpv2_rnc_id, align 4
  %112 = load ptr, ptr %9, align 8
  %113 = load i32, ptr %23, align 4
  %114 = call ptr @proto_tree_add_item(ptr noundef %110, i32 noundef %111, ptr noundef %112, i32 noundef %113, i32 noundef 2, i32 noundef 0)
  call void @llvm.lifetime.end.p0(i64 4, ptr %23) #11
  call void @llvm.lifetime.end.p0(i64 4, ptr %22) #11
  call void @llvm.lifetime.end.p0(i64 4, ptr %21) #11
  call void @llvm.lifetime.end.p0(i64 4, ptr %20) #11
  call void @llvm.lifetime.end.p0(i64 8, ptr %19) #11
  call void @llvm.lifetime.end.p0(i64 2, ptr %18) #11
  call void @llvm.lifetime.end.p0(i64 4, ptr %17) #11
  ret void
}