; Function Attrs: null_pointer_is_valid sspstrong uwtable
define internal void @dissect_gtpv2_tgt_rnc_id(ptr noundef %0, ptr noundef %1, ptr noundef %2, ptr readnone captures(none) %3, i16 zeroext %4, i8 zeroext %5, i8 zeroext %6, ptr readnone captures(none) %7) #1 {
  %9 = tail call zeroext i8 @tvb_get_uint8(ptr noundef %0, i32 noundef 0)
  %10 = tail call zeroext i8 @tvb_get_uint8(ptr noundef %0, i32 noundef 0)
  %11 = tail call zeroext i8 @tvb_get_uint8(ptr noundef %0, i32 noundef 1)
  %12 = tail call zeroext i8 @tvb_get_uint8(ptr noundef %0, i32 noundef 2)
  %13 = and i8 %12, 15
  %14 = zext nneg i8 %13 to i32
  %15 = shl nuw nsw i32 %14, 8
  %16 = tail call zeroext i8 @tvb_get_uint8(ptr noundef %0, i32 noundef 2)
  %17 = and i8 %16, -16
  %18 = zext i8 %17 to i32
  %19 = or disjoint i32 %15, %18
  %20 = tail call zeroext i8 @tvb_get_uint8(ptr noundef %0, i32 noundef 1)
  %21 = lshr i8 %20, 4
  %22 = zext nneg i8 %21 to i32
  %23 = or disjoint i32 %19, %22
  %24 = icmp eq i8 %21, 15
  %25 = lshr exact i32 %19, 4
  %spec.select = select i1 %24, i32 %25, i32 %23
  %26 = and i8 %9, 15
  %27 = zext nneg i8 %26 to i32
  %28 = shl nuw nsw i32 %27, 8
  %29 = and i8 %10, -16
  %30 = zext i8 %29 to i32
  %31 = or disjoint i32 %28, %30
  %32 = and i8 %11, 15
  %33 = zext nneg i8 %32 to i32
  %34 = or disjoint i32 %31, %33
  %35 = tail call zeroext i16 @tvb_get_ntohs(ptr noundef %0, i32 noundef 3)
  %36 = zext i16 %35 to i32
  %37 = tail call zeroext i16 @tvb_get_ntohs(ptr noundef %0, i32 noundef 5)
  %38 = load i32, ptr @ett_gtpv2_rai, align 4
  %39 = zext i16 %37 to i32
  %40 = tail call ptr (ptr, ptr, i32, i32, i32, ptr, ptr, ...) @proto_tree_add_subtree_format(ptr noundef %2, ptr noundef %0, i32 noundef 0, i32 noundef 6, i32 noundef %38, ptr noundef null, ptr noundef nonnull @.str.1797, i32 noundef %34, i32 noundef %spec.select, i32 noundef %36, i32 noundef %39)
  %41 = tail call i32 @dissect_e212_mcc_mnc(ptr noundef %0, ptr noundef %1, ptr noundef %40, i32 noundef 0, i32 noundef 2, i1 noundef zeroext true)
  %42 = load i32, ptr @hf_gtpv2_lac, align 4
  %43 = tail call ptr @proto_tree_add_item(ptr noundef %40, i32 noundef %42, ptr noundef %0, i32 noundef 3, i32 noundef 2, i32 noundef 0)
  %44 = load i32, ptr @hf_gtpv2_rnc_id, align 4
  %45 = tail call ptr @proto_tree_add_item(ptr noundef %40, i32 noundef %44, ptr noundef %0, i32 noundef 5, i32 noundef 2, i32 noundef 0)
  ret void
}